target datalayout = "e-m:e-p270:32:32-p271:32:32-p272:64:64-i64:64-i128:128-f80:128-n8:16:32:64-S128"
target triple = "x86_64-pc-linux-gnu"

; Function Attrs: nounwind uwtable
define internal i32 @_cmsQuickFloor(double noundef %0) #0 {
  %2 = alloca double, align 8
  store double %0, ptr %2, align 8
  %3 = load double, ptr %2, align 8
  %4 = call double @llvm.floor.f64(double %3)
  %5 = fptosi double %4 to i32
  ret i32 %5
}

; Function Attrs: nounwind uwtable
define internal zeroext i16 @_cmsQuickFloorWord(double noundef %0) #0 {
  %2 = alloca double, align 8
  store double %0, ptr %2, align 8
  %3 = load double, ptr %2, align 8
  %4 = fsub double %3, 3.276700e+04
  %5 = call i32 @_cmsQuickFloor(double noundef %4)
  %6 = trunc i32 %5 to i16
  %7 = zext i16 %6 to i32
  %8 = add i32 %7, 32767
  %9 = trunc i32 %8 to i16
  ret i16 %9
}

; Function Attrs: nounwind uwtable
define internal zeroext i16 @_cmsQuickSaturateWord(double noundef %0) #0 {
  %2 = alloca i16, align 2
  %3 = alloca double, align 8
  store double %0, ptr %3, align 8
  %4 = load double, ptr %3, align 8
  %5 = fadd double %4, 5.000000e-01
  store double %5, ptr %3, align 8
  %6 = load double, ptr %3, align 8
  %7 = fcmp ole double %6, 0.000000e+00
  br i1 %7, label %8, label %9

8:                                                ; preds = %1
  store i16 0, ptr %2, align 2
  br label %16

9:                                                ; preds = %1
  %10 = load double, ptr %3, align 8
  %11 = fcmp oge double %10, 6.553500e+04
  br i1 %11, label %12, label %13

12:                                               ; preds = %9
  store i16 -1, ptr %2, align 2
  br label %16

13:                                               ; preds = %9
  %14 = load double, ptr %3, align 8
  %15 = call zeroext i16 @_cmsQuickFloorWord(double noundef %14)
  store i16 %15, ptr %2, align 2
  br label %16

16:                                               ; preds = %13, %12, %8
  %17 = load i16, ptr %2, align 2
  ret i16 %17
}

; Function Attrs: nounwind uwtable
define hidden zeroext i16 @_cmsQuantizeVal(double noundef %0, i32 noundef %1) #0 {
  %3 = alloca double, align 8
  %4 = alloca i32, align 4
  %5 = alloca double, align 8
  store double %0, ptr %3, align 8
  store i32 %1, ptr %4, align 4
  %6 = load double, ptr %3, align 8
  %7 = fmul double %6, 6.553500e+04
  %8 = load i32, ptr %4, align 4
  %9 = sub i32 %8, 1
  %10 = uitofp i32 %9 to double
  %11 = fdiv double %7, %10
  store double %11, ptr %5, align 8
  %12 = load double, ptr %5, align 8
  %13 = call zeroext i16 @_cmsQuickSaturateWord(double noundef %12)
  ret i16 %13
}

; Function Attrs: nounwind uwtable
define internal i32 @CubeSize(ptr noundef %0, i32 noundef %1) #0 {
  %3 = alloca i32, align 4
  %4 = alloca ptr, align 8
  %5 = alloca i32, align 4
  %6 = alloca i32, align 4
  %7 = alloca i32, align 4
  store ptr %0, ptr %4, align 8
  store i32 %1, ptr %5, align 4
  store i32 1, ptr %6, align 4
  br label %8

8:                                                ; preds = %31, %2
  %9 = load i32, ptr %5, align 4
  %10 = icmp ugt i32 %9, 0
  br i1 %10, label %11, label %34

11:                                               ; preds = %8
  %12 = load ptr, ptr %4, align 8
  %13 = load i32, ptr %5, align 4
  %14 = sub i32 %13, 1
  %15 = zext i32 %14 to i64
  %16 = getelementptr inbounds i32, ptr %12, i64 %15
  %17 = load i32, ptr %16, align 4
  store i32 %17, ptr %7, align 4
  %18 = load i32, ptr %7, align 4
  %19 = icmp ule i32 %18, 1
  br i1 %19, label %20, label %21

20:                                               ; preds = %11
  store i32 0, ptr %3, align 4
  br label %40

21:                                               ; preds = %11
  %22 = load i32, ptr %7, align 4
  %23 = load i32, ptr %6, align 4
  %24 = mul i32 %23, %22
  store i32 %24, ptr %6, align 4
  %25 = load i32, ptr %6, align 4
  %26 = load i32, ptr %7, align 4
  %27 = udiv i32 -1, %26
  %28 = icmp ugt i32 %25, %27
  br i1 %28, label %29, label %30

29:                                               ; preds = %21
  store i32 0, ptr %3, align 4
  br label %40

30:                                               ; preds = %21
  br label %31

31:                                               ; preds = %30
  %32 = load i32, ptr %5, align 4
  %33 = add i32 %32, -1
  store i32 %33, ptr %5, align 4
  br label %8, !llvm.loop !20

34:                                               ; preds = %8
  %35 = load i32, ptr %6, align 4
  %36 = icmp ugt i32 %35, 286331153
  br i1 %36, label %37, label %38

37:                                               ; preds = %34
  store i32 0, ptr %3, align 4
  br label %40

38:                                               ; preds = %34
  %39 = load i32, ptr %6, align 4
  store i32 %39, ptr %3, align 4
  br label %40

40:                                               ; preds = %38, %37, %29, %20
  %41 = load i32, ptr %3, align 4
  ret i32 %41
}

; Function Attrs: nounwind uwtable
define hidden i32 @cmsSliceSpace16(i32 noundef %0, ptr noundef %1, ptr noundef %2, ptr noundef %3) #0 {
  %5 = alloca i32, align 4
  %6 = alloca i32, align 4
  %7 = alloca ptr, align 8
  %8 = alloca ptr, align 8
  %9 = alloca ptr, align 8
  %10 = alloca i32, align 4
  %11 = alloca i32, align 4
  %12 = alloca i32, align 4
  %13 = alloca i32, align 4
  %14 = alloca [16 x i16], align 16
  %15 = alloca i32, align 4
  store i32 %0, ptr %6, align 4
  store ptr %1, ptr %7, align 8
  store ptr %2, ptr %8, align 8
  store ptr %3, ptr %9, align 8
  %16 = load i32, ptr %6, align 4
  %17 = icmp uge i32 %16, 16
  br i1 %17, label %18, label %19

18:                                               ; preds = %4
  store i32 0, ptr %5, align 4
  br label %79

19:                                               ; preds = %4
  %20 = load ptr, ptr %7, align 8
  %21 = load i32, ptr %6, align 4
  %22 = call i32 @CubeSize(ptr noundef %20, i32 noundef %21)
  store i32 %22, ptr %13, align 4
  %23 = load i32, ptr %13, align 4
  %24 = icmp eq i32 %23, 0
  br i1 %24, label %25, label %26

25:                                               ; preds = %19
  store i32 0, ptr %5, align 4
  br label %79

26:                                               ; preds = %19
  store i32 0, ptr %10, align 4
  br label %27

27:                                               ; preds = %75, %26
  %28 = load i32, ptr %10, align 4
  %29 = load i32, ptr %13, align 4
  %30 = icmp slt i32 %28, %29
  br i1 %30, label %31, label %78

31:                                               ; preds = %27
  %32 = load i32, ptr %10, align 4
  store i32 %32, ptr %12, align 4
  %33 = load i32, ptr %6, align 4
  %34 = sub nsw i32 %33, 1
  store i32 %34, ptr %11, align 4
  br label %35

35:                                               ; preds = %64, %31
  %36 = load i32, ptr %11, align 4
  %37 = icmp sge i32 %36, 0
  br i1 %37, label %38, label %67

38:                                               ; preds = %35
  %39 = load i32, ptr %12, align 4
  %40 = load ptr, ptr %7, align 8
  %41 = load i32, ptr %11, align 4
  %42 = sext i32 %41 to i64
  %43 = getelementptr inbounds i32, ptr %40, i64 %42
  %44 = load i32, ptr %43, align 4
  %45 = urem i32 %39, %44
  store i32 %45, ptr %15, align 4
  %46 = load ptr, ptr %7, align 8
  %47 = load i32, ptr %11, align 4
  %48 = sext i32 %47 to i64
  %49 = getelementptr inbounds i32, ptr %46, i64 %48
  %50 = load i32, ptr %49, align 4
  %51 = load i32, ptr %12, align 4
  %52 = udiv i32 %51, %50
  store i32 %52, ptr %12, align 4
  %53 = load i32, ptr %15, align 4
  %54 = uitofp i32 %53 to double
  %55 = load ptr, ptr %7, align 8
  %56 = load i32, ptr %11, align 4
  %57 = sext i32 %56 to i64
  %58 = getelementptr inbounds i32, ptr %55, i64 %57
  %59 = load i32, ptr %58, align 4
  %60 = call zeroext i16 @_cmsQuantizeVal(double noundef %54, i32 noundef %59)
  %61 = load i32, ptr %11, align 4
  %62 = sext i32 %61 to i64
  %63 = getelementptr inbounds [16 x i16], ptr %14, i64 0, i64 %62
  store i16 %60, ptr %63, align 2
  br label %64

64:                                               ; preds = %38
  %65 = load i32, ptr %11, align 4
  %66 = add nsw i32 %65, -1
  store i32 %66, ptr %11, align 4
  br label %35, !llvm.loop !34

67:                                               ; preds = %35
  %68 = load ptr, ptr %8, align 8
  %69 = getelementptr inbounds [16 x i16], ptr %14, i64 0, i64 0
  %70 = load ptr, ptr %9, align 8
  %71 = call i32 %68(ptr noundef %69, ptr noundef null, ptr noundef %70)
  %72 = icmp ne i32 %71, 0
  br i1 %72, label %74, label %73

73:                                               ; preds = %67
  store i32 0, ptr %5, align 4
  br label %79

74:                                               ; preds = %67
  br label %75

75:                                               ; preds = %74
  %76 = load i32, ptr %10, align 4
  %77 = add nsw i32 %76, 1
  store i32 %77, ptr %10, align 4
  br label %27, !llvm.loop !35

78:                                               ; preds = %27
  store i32 1, ptr %5, align 4
  br label %79

79:                                               ; preds = %78, %73, %25, %18
  %80 = load i32, ptr %5, align 4
  ret i32 %80
}