; Function Attrs: nounwind uwtable
define hidden range(i32 0, 2) i32 @cmsSliceSpace16(i32 noundef %0, ptr nocapture noundef readonly %1, ptr nocapture noundef readonly %2, ptr noundef %3) local_unnamed_addr #0 {
  %5 = alloca [16 x i16], align 16
  %6 = icmp ugt i32 %0, 15
  br i1 %6, label %CubeSize.exit.thread, label %7

7:                                                ; preds = %4
  %invariant.gep.i = getelementptr i8, ptr %1, i64 -4
  %.not16.i = icmp eq i32 %0, 0
  br i1 %.not16.i, label %.preheader.preheader, label %.lr.ph.preheader.i

.lr.ph.preheader.i:                               ; preds = %7
  %8 = zext nneg i32 %0 to i64
  br label %.lr.ph.i

9:                                                ; preds = %12
  %indvars.iv.next.i = add nsw i64 %indvars.iv.i, -1
  %.not.i = icmp eq i64 %indvars.iv.next.i, 0
  br i1 %.not.i, label %._crit_edge.i, label %.lr.ph.i, !llvm.loop !19

.lr.ph.i:                                         ; preds = %9, %.lr.ph.preheader.i
  %indvars.iv.i = phi i64 [ %8, %.lr.ph.preheader.i ], [ %indvars.iv.next.i, %9 ]
  %.01118.i = phi i32 [ 1, %.lr.ph.preheader.i ], [ %13, %9 ]
  %gep.i = getelementptr i32, ptr %invariant.gep.i, i64 %indvars.iv.i
  %10 = load i32, ptr %gep.i, align 4
  %.fr22.i = freeze i32 %10
  %11 = icmp ult i32 %.fr22.i, 2
  br i1 %11, label %CubeSize.exit.thread, label %12

12:                                               ; preds = %.lr.ph.i
  %13 = mul i32 %.fr22.i, %.01118.i
  %mul.i = tail call { i32, i1 } @llvm.umul.with.overflow.i32(i32 %.fr22.i, i32 %13)
  %mul.ov.i = extractvalue { i32, i1 } %mul.i, 1
  br i1 %mul.ov.i, label %CubeSize.exit.thread, label %9

._crit_edge.i:                                    ; preds = %9
  %14 = add i32 %13, -286331154
  %or.cond = icmp ult i32 %14, -286331153
  br i1 %or.cond, label %CubeSize.exit.thread, label %.preheader29

.preheader29:                                     ; preds = %._crit_edge.i
  br i1 %.not16.i, label %.preheader.preheader, label %.preheader.us.preheader

.preheader.us.preheader:                          ; preds = %.preheader29
  %15 = zext nneg i32 %0 to i64
  br label %.preheader.us

.preheader.preheader:                             ; preds = %7, %.preheader29
  %.0.i4345 = phi i32 [ %13, %.preheader29 ], [ 1, %7 ]
  br label %.preheader

.preheader.us:                                    ; preds = %.preheader.us.preheader, %40
  %.02333.us = phi i32 [ %41, %40 ], [ 0, %.preheader.us.preheader ]
  br label %16

16:                                               ; preds = %.preheader.us, %_cmsQuantizeVal.exit.us
  %indvars.iv = phi i64 [ %15, %.preheader.us ], [ %17, %_cmsQuantizeVal.exit.us ]
  %.02432.us = phi i32 [ %.02333.us, %.preheader.us ], [ %21, %_cmsQuantizeVal.exit.us ]
  %17 = add nsw i64 %indvars.iv, -1
  %18 = getelementptr inbounds i32, ptr %1, i64 %17
  %19 = load i32, ptr %18, align 4
  %20 = urem i32 %.02432.us, %19
  %21 = udiv i32 %.02432.us, %19
  %22 = uitofp i32 %20 to double
  %23 = fmul double %22, 6.553500e+04
  %24 = add i32 %19, -1
  %25 = uitofp i32 %24 to double
  %26 = fdiv double %23, %25
  %27 = fadd double %26, 5.000000e-01
  %28 = fcmp ugt double %27, 0.000000e+00
  br i1 %28, label %29, label %_cmsQuantizeVal.exit.us

29:                                               ; preds = %16
  %30 = fcmp ult double %27, 6.553500e+04
  br i1 %30, label %31, label %_cmsQuantizeVal.exit.us

31:                                               ; preds = %29
  %32 = fadd double %27, -3.276700e+04
  %33 = call double @llvm.floor.f64(double %32)
  %34 = fptosi double %33 to i32
  %35 = trunc i32 %34 to i16
  %36 = add i16 %35, 32767
  br label %_cmsQuantizeVal.exit.us

_cmsQuantizeVal.exit.us:                          ; preds = %31, %29, %16
  %.0.i.i.us = phi i16 [ %36, %31 ], [ 0, %16 ], [ -1, %29 ]
  %37 = getelementptr inbounds [16 x i16], ptr %5, i64 0, i64 %17
  store i16 %.0.i.i.us, ptr %37, align 2
  %38 = trunc nuw i64 %indvars.iv to i32
  %39 = icmp sgt i32 %38, 1
  br i1 %39, label %16, label %._crit_edge.us, !llvm.loop !36

40:                                               ; preds = %._crit_edge.us
  %41 = add nuw nsw i32 %.02333.us, 1
  %exitcond.not = icmp eq i32 %41, %13
  br i1 %exitcond.not, label %CubeSize.exit.thread, label %.preheader.us, !llvm.loop !37

._crit_edge.us:                                   ; preds = %_cmsQuantizeVal.exit.us
  %42 = call i32 %2(ptr noundef nonnull %5, ptr noundef null, ptr noundef %3) #18
  %.not.us = icmp eq i32 %42, 0
  br i1 %.not.us, label %CubeSize.exit.thread, label %40

43:                                               ; preds = %.preheader
  %44 = add nuw nsw i32 %.02333, 1
  %exitcond40.not = icmp eq i32 %44, %.0.i4345
  br i1 %exitcond40.not, label %CubeSize.exit.thread, label %.preheader, !llvm.loop !37

.preheader:                                       ; preds = %.preheader.preheader, %43
  %.02333 = phi i32 [ %44, %43 ], [ 0, %.preheader.preheader ]
  %45 = call i32 %2(ptr noundef nonnull %5, ptr noundef null, ptr noundef %3) #18
  %.not = icmp eq i32 %45, 0
  br i1 %.not, label %CubeSize.exit.thread, label %43

CubeSize.exit.thread:                             ; preds = %12, %.lr.ph.i, %40, %._crit_edge.us, %.preheader, %43, %._crit_edge.i, %4
  %.0 = phi i32 [ 0, %4 ], [ 0, %._crit_edge.i ], [ 1, %43 ], [ 0, %.preheader ], [ 1, %40 ], [ 0, %._crit_edge.us ], [ 0, %.lr.ph.i ], [ 0, %12 ]
  ret i32 %.0
}